; ModuleID = '6/119.c'
source_filename = "6/119.c"
target datalayout = "e-m:e-p270:32:32-p271:32:32-p272:64:64-i64:64-f80:128-n8:16:32:64-S128"
target triple = "x86_64-pc-linux-gnu"

@.str = private unnamed_addr constant [3 x i8] c"%d\00", align 1
@.str.1 = private unnamed_addr constant [5 x i8] c"%d%d\00", align 1
@.str.2 = private unnamed_addr constant [4 x i8] c"%d\0A\00", align 1

; Function Attrs: noinline nounwind uwtable
define dso_local i32 @main() #0 {
  %1 = alloca i32, align 4
  %2 = alloca i32, align 4
  %3 = alloca i32, align 4
  %4 = alloca i32, align 4
  %5 = alloca i32, align 4
  %6 = alloca i32**, align 8
  %7 = alloca i32, align 4
  %8 = alloca i32, align 4
  %9 = alloca i32, align 4
  store i32 0, i32* %1, align 4
  %10 = call i32 (i8*, ...) @__isoc99_scanf(i8* getelementptr inbounds ([3 x i8], [3 x i8]* @.str, i64 0, i64 0), i32* %2)
  store i32 0, i32* %3, align 4
  br label %11

11:                                               ; preds = %126, %0
  %12 = load i32, i32* %3, align 4
  %13 = load i32, i32* %2, align 4
  %14 = icmp slt i32 %12, %13
  br i1 %14, label %15, label %129

15:                                               ; preds = %11
  %16 = call i32 (i8*, ...) @__isoc99_scanf(i8* getelementptr inbounds ([5 x i8], [5 x i8]* @.str.1, i64 0, i64 0), i32* %4, i32* %5)
  %17 = load i32, i32* %4, align 4
  %18 = sext i32 %17 to i64
  %19 = mul i64 %18, 8
  %20 = call noalias i8* @malloc(i64 %19) #3
  %21 = bitcast i8* %20 to i32**
  store i32** %21, i32*** %6, align 8
  store i32 0, i32* %7, align 4
  br label %22

22:                                               ; preds = %36, %15
  %23 = load i32, i32* %7, align 4
  %24 = load i32, i32* %4, align 4
  %25 = icmp slt i32 %23, %24
  br i1 %25, label %26, label %39

26:                                               ; preds = %22
  %27 = load i32, i32* %5, align 4
  %28 = sext i32 %27 to i64
  %29 = mul i64 %28, 4
  %30 = call noalias i8* @malloc(i64 %29) #3
  %31 = bitcast i8* %30 to i32*
  %32 = load i32**, i32*** %6, align 8
  %33 = load i32, i32* %7, align 4
  %34 = sext i32 %33 to i64
  %35 = getelementptr inbounds i32*, i32** %32, i64 %34
  store i32* %31, i32** %35, align 8
  br label %36

36:                                               ; preds = %26
  %37 = load i32, i32* %7, align 4
  %38 = add nsw i32 %37, 1
  store i32 %38, i32* %7, align 4
  br label %22

39:                                               ; preds = %22
  store i32 0, i32* %7, align 4
  br label %40

40:                                               ; preds = %63, %39
  %41 = load i32, i32* %7, align 4
  %42 = load i32, i32* %4, align 4
  %43 = icmp slt i32 %41, %42
  br i1 %43, label %44, label %66

44:                                               ; preds = %40
  store i32 0, i32* %8, align 4
  br label %45

45:                                               ; preds = %59, %44
  %46 = load i32, i32* %8, align 4
  %47 = load i32, i32* %5, align 4
  %48 = icmp slt i32 %46, %47
  br i1 %48, label %49, label %62

49:                                               ; preds = %45
  %50 = load i32**, i32*** %6, align 8
  %51 = load i32, i32* %7, align 4
  %52 = sext i32 %51 to i64
  %53 = getelementptr inbounds i32*, i32** %50, i64 %52
  %54 = load i32*, i32** %53, align 8
  %55 = load i32, i32* %8, align 4
  %56 = sext i32 %55 to i64
  %57 = getelementptr inbounds i32, i32* %54, i64 %56
  %58 = call i32 (i8*, ...) @__isoc99_scanf(i8* getelementptr inbounds ([3 x i8], [3 x i8]* @.str, i64 0, i64 0), i32* %57)
  br label %59

59:                                               ; preds = %49
  %60 = load i32, i32* %8, align 4
  %61 = add nsw i32 %60, 1
  store i32 %61, i32* %8, align 4
  br label %45

62:                                               ; preds = %45
  br label %63

63:                                               ; preds = %62
  %64 = load i32, i32* %7, align 4
  %65 = add nsw i32 %64, 1
  store i32 %65, i32* %7, align 4
  br label %40

66:                                               ; preds = %40
  store i32 0, i32* %9, align 4
  store i32 0, i32* %8, align 4
  br label %67

67:                                               ; preds = %91, %66
  %68 = load i32, i32* %8, align 4
  %69 = load i32, i32* %5, align 4
  %70 = icmp slt i32 %68, %69
  br i1 %70, label %71, label %94

71:                                               ; preds = %67
  %72 = load i32, i32* %9, align 4
  %73 = load i32**, i32*** %6, align 8
  %74 = load i32*, i32** %73, align 8
  %75 = load i32, i32* %8, align 4
  %76 = sext i32 %75 to i64
  %77 = getelementptr inbounds i32, i32* %74, i64 %76
  %78 = load i32, i32* %77, align 4
  %79 = add nsw i32 %72, %78
  %80 = load i32**, i32*** %6, align 8
  %81 = load i32, i32* %4, align 4
  %82 = sext i32 %81 to i64
  %83 = getelementptr inbounds i32*, i32** %80, i64 %82
  %84 = getelementptr inbounds i32*, i32** %83, i64 -1
  %85 = load i32*, i32** %84, align 8
  %86 = load i32, i32* %8, align 4
  %87 = sext i32 %86 to i64
  %88 = getelementptr inbounds i32, i32* %85, i64 %87
  %89 = load i32, i32* %88, align 4
  %90 = add nsw i32 %79, %89
  store i32 %90, i32* %9, align 4
  br label %91

91:                                               ; preds = %71
  %92 = load i32, i32* %8, align 4
  %93 = add nsw i32 %92, 1
  store i32 %93, i32* %8, align 4
  br label %67

94:                                               ; preds = %67
  store i32 1, i32* %7, align 4
  br label %95

95:                                               ; preds = %120, %94
  %96 = load i32, i32* %7, align 4
  %97 = load i32, i32* %4, align 4
  %98 = sub nsw i32 %97, 1
  %99 = icmp slt i32 %96, %98
  br i1 %99, label %100, label %123

100:                                              ; preds = %95
  %101 = load i32, i32* %9, align 4
  %102 = load i32**, i32*** %6, align 8
  %103 = load i32, i32* %7, align 4
  %104 = sext i32 %103 to i64
  %105 = getelementptr inbounds i32*, i32** %102, i64 %104
  %106 = load i32*, i32** %105, align 8
  %107 = load i32, i32* %106, align 4
  %108 = add nsw i32 %101, %107
  %109 = load i32**, i32*** %6, align 8
  %110 = load i32, i32* %7, align 4
  %111 = sext i32 %110 to i64
  %112 = getelementptr inbounds i32*, i32** %109, i64 %111
  %113 = load i32*, i32** %112, align 8
  %114 = load i32, i32* %5, align 4
  %115 = sext i32 %114 to i64
  %116 = getelementptr inbounds i32, i32* %113, i64 %115
  %117 = getelementptr inbounds i32, i32* %116, i64 -1
  %118 = load i32, i32* %117, align 4
  %119 = add nsw i32 %108, %118
  store i32 %119, i32* %9, align 4
  br label %120

120:                                              ; preds = %100
  %121 = load i32, i32* %7, align 4
  %122 = add nsw i32 %121, 1
  store i32 %122, i32* %7, align 4
  br label %95

123:                                              ; preds = %95
  %124 = load i32, i32* %9, align 4
  %125 = call i32 (i8*, ...) @printf(i8* getelementptr inbounds ([4 x i8], [4 x i8]* @.str.2, i64 0, i64 0), i32 %124)
  br label %126

126:                                              ; preds = %123
  %127 = load i32, i32* %3, align 4
  %128 = add nsw i32 %127, 1
  store i32 %128, i32* %3, align 4
  br label %11

129:                                              ; preds = %11
  ret i32 0
}

declare dso_local i32 @__isoc99_scanf(i8*, ...) #1

; Function Attrs: nounwind
declare dso_local noalias i8* @malloc(i64) #2

declare dso_local i32 @printf(i8*, ...) #1


!llvm.module.flags = !{!0}
!llvm.ident = !{!1}

!0 = !{i32 1, !"wchar_size", i32 4}
!1 = !{!"clang version 10.0.0-4ubuntu1 "}
